target datalayout = "e-m:e-p270:32:32-p271:32:32-p272:64:64-i64:64-i128:128-f80:128-n8:16:32:64-S128"
target triple = "x86_64-pc-linux-gnu"

%struct._object = type { %union.anon.41, ptr }
%union.anon.41 = type { i64 }
%struct.encoding_map = type { %struct._object, [32 x i8], i32, i32, [1 x i8] }

; Function Attrs: nounwind uwtable
define internal ptr @EncodingMap_size_impl(ptr noundef %0) #0 {
  %2 = alloca ptr, align 8
  store ptr %0, ptr %2, align 8, !tbaa !373
  %3 = load ptr, ptr %2, align 8, !tbaa !373
  %4 = getelementptr inbounds nuw %struct.encoding_map, ptr %3, i32 0, i32 2
  %5 = load i32, ptr %4, align 8, !tbaa !375
  %6 = mul i32 16, %5
  %7 = sext i32 %6 to i64
  %8 = add i64 63, %7
  %9 = load ptr, ptr %2, align 8, !tbaa !373
  %10 = getelementptr inbounds nuw %struct.encoding_map, ptr %9, i32 0, i32 3
  %11 = load i32, ptr %10, align 4, !tbaa !377
  %12 = mul i32 128, %11
  %13 = sext i32 %12 to i64
  %14 = add i64 %8, %13
  %15 = call ptr @PyLong_FromLong(i64 noundef %14)
  ret ptr %15
}

; Function Attrs: nounwind uwtable
define internal ptr @EncodingMap_size(ptr noundef %0, ptr noundef %1) #0 {
  %3 = alloca ptr, align 8
  %4 = alloca ptr, align 8
  store ptr %0, ptr %3, align 8, !tbaa !4
  store ptr %1, ptr %4, align 8, !tbaa !4
  %5 = load ptr, ptr %3, align 8, !tbaa !4
  %6 = call ptr @EncodingMap_size_impl(ptr noundef %5)
  ret ptr %6
}