; Function Attrs: nounwind uwtable
define internal ptr @EncodingMap_size(ptr noundef readonly captures(none) %0, ptr readnone captures(none) %1) #0 {
  %3 = getelementptr i8, ptr %0, i64 48
  %.val = load i32, ptr %3, align 8, !tbaa !353
  %4 = getelementptr i8, ptr %0, i64 52
  %.val1 = load i32, ptr %4, align 4, !tbaa !355
  %5 = shl i32 %.val, 4
  %6 = sext i32 %5 to i64
  %7 = add nsw i64 %6, 63
  %8 = shl i32 %.val1, 7
  %9 = sext i32 %8 to i64
  %10 = add nsw i64 %7, %9
  %11 = tail call ptr @PyLong_FromLong(i64 noundef %10) #41
  ret ptr %11
}